; Function Attrs: mustprogress nofree norecurse nosync nounwind willreturn memory(read, inaccessiblemem: none) uwtable
define i32 @llama_n_vocab(ptr noundef readonly captures(none) %0) local_unnamed_addr #14 {
  %2 = load ptr, ptr %0, align 8, !tbaa !174
  %3 = getelementptr inbounds nuw i8, ptr %2, i64 144
  %4 = getelementptr inbounds nuw i8, ptr %2, i64 152
  %5 = load ptr, ptr %4, align 8, !tbaa !70
  %6 = load ptr, ptr %3, align 8, !tbaa !71
  %7 = ptrtoint ptr %5 to i64
  %8 = ptrtoint ptr %6 to i64
  %9 = sub i64 %7, %8
  %10 = sdiv exact i64 %9, 40
  %11 = trunc i64 %10 to i32
  ret i32 %11
}